target datalayout = "e-m:e-p270:32:32-p271:32:32-p272:64:64-i64:64-i128:128-f80:128-n8:16:32:64-S128"
target triple = "x86_64-pc-linux-gnu"

%"class.gmx::BasicVector.0" = type { [3 x i32] }

; Function Attrs: mustprogress nounwind uwtable
define linkonce_odr noundef nonnull align 4 dereferenceable(4) ptr @_ZN3gmx11BasicVectorIiEixEi(ptr noundef nonnull align 4 dereferenceable(12) %0, i32 noundef %1) #2 comdat align 2 {
  %3 = alloca ptr, align 8
  %4 = alloca i32, align 4
  store ptr %0, ptr %3, align 8, !tbaa !4
  store i32 %1, ptr %4, align 4, !tbaa !13
  %5 = load ptr, ptr %3, align 8
  %6 = getelementptr inbounds nuw %"class.gmx::BasicVector.0", ptr %5, i32 0, i32 0
  %7 = load i32, ptr %4, align 4, !tbaa !13
  %8 = sext i32 %7 to i64
  %9 = getelementptr inbounds [3 x i32], ptr %6, i64 0, i64 %8
  ret ptr %9
}

; Function Attrs: mustprogress uwtable
define internal void @_ZL14assign_factorsffPA3_KfRK11gmx_ddbox_tiRK10t_inputrecfiiPKiS9_PN3gmx11BasicVectorIiEESD_(float noundef %0, float noundef %1, ptr noundef %2, ptr noundef nonnull align 4 dereferenceable(200) %3, i32 noundef %4, ptr noundef nonnull align 8 dereferenceable(880) %5, float noundef %6, i32 noundef %7, i32 noundef %8, ptr noundef %9, ptr noundef %10, ptr noundef %11, ptr noundef %12) #0 {
  %14 = alloca float, align 4
  %15 = alloca float, align 4
  %16 = alloca ptr, align 8
  %17 = alloca ptr, align 8
  %18 = alloca i32, align 4
  %19 = alloca ptr, align 8
  %20 = alloca float, align 4
  %21 = alloca i32, align 4
  %22 = alloca i32, align 4
  %23 = alloca ptr, align 8
  %24 = alloca ptr, align 8
  %25 = alloca ptr, align 8
  %26 = alloca ptr, align 8
  %27 = alloca ptr, align 8
  %28 = alloca float, align 4
  %29 = alloca i32, align 4
  %30 = alloca i32, align 4
  %31 = alloca i32, align 4
  %32 = alloca i32, align 4
  %33 = alloca i32, align 4
  %34 = alloca i32, align 4
  %35 = alloca i32, align 4
  %36 = alloca i32, align 4
  %37 = alloca i32, align 4
  store float %0, ptr %14, align 4, !tbaa !9
  store float %1, ptr %15, align 4, !tbaa !9
  store ptr %2, ptr %16, align 8, !tbaa !287
  store ptr %3, ptr %17, align 8, !tbaa !11
  store i32 %4, ptr %18, align 4, !tbaa !13
  store ptr %5, ptr %19, align 8, !tbaa !26
  store float %6, ptr %20, align 4, !tbaa !9
  store i32 %7, ptr %21, align 4, !tbaa !13
  store i32 %8, ptr %22, align 4, !tbaa !13
  store ptr %9, ptr %23, align 8, !tbaa !263
  store ptr %10, ptr %24, align 8, !tbaa !263
  store ptr %11, ptr %25, align 8, !tbaa !4
  store ptr %12, ptr %26, align 8, !tbaa !4
  call void @llvm.lifetime.start.p0(i64 8, ptr %27) #17
  %38 = load ptr, ptr %25, align 8, !tbaa !4
  store ptr %38, ptr %27, align 8, !tbaa !4
  %39 = load i32, ptr %22, align 4, !tbaa !13
  %40 = icmp eq i32 %39, 0
  br i1 %40, label %41, label %78

41:                                               ; preds = %13
  call void @llvm.lifetime.start.p0(i64 4, ptr %28) #17
  %42 = load float, ptr %14, align 4, !tbaa !9
  %43 = load float, ptr %15, align 4, !tbaa !9
  %44 = load ptr, ptr %16, align 8, !tbaa !287
  %45 = load ptr, ptr %17, align 8, !tbaa !11
  %46 = load i32, ptr %18, align 4, !tbaa !13
  %47 = sext i32 %46 to i64
  %48 = load ptr, ptr %19, align 8, !tbaa !26
  %49 = load float, ptr %20, align 4, !tbaa !9
  %50 = load i32, ptr %21, align 4, !tbaa !13
  %51 = load ptr, ptr %27, align 8, !tbaa !4
  %52 = call noundef float @_ZL13comm_cost_estffPA3_KfRK11gmx_ddbox_tlRK10t_inputrecfiRKN3gmx11BasicVectorIiEE(float noundef %42, float noundef %43, ptr noundef %44, ptr noundef nonnull align 4 dereferenceable(200) %45, i64 noundef %47, ptr noundef nonnull align 8 dereferenceable(880) %48, float noundef %49, i32 noundef %50, ptr noundef nonnull align 4 dereferenceable(12) %51)
  store float %52, ptr %28, align 4, !tbaa !9
  %53 = load float, ptr %28, align 4, !tbaa !9
  %54 = fcmp oge float %53, 0.000000e+00
  br i1 %54, label %55, label %77

55:                                               ; preds = %41
  %56 = load ptr, ptr %26, align 8, !tbaa !4
  %57 = call noundef nonnull align 4 dereferenceable(4) ptr @_ZN3gmx11BasicVectorIiEixEi(ptr noundef nonnull align 4 dereferenceable(12) %56, i32 noundef 0)
  %58 = load i32, ptr %57, align 4, !tbaa !13
  %59 = icmp eq i32 %58, 0
  br i1 %59, label %74, label %60

60:                                               ; preds = %55
  %61 = load float, ptr %28, align 4, !tbaa !9
  %62 = load float, ptr %14, align 4, !tbaa !9
  %63 = load float, ptr %15, align 4, !tbaa !9
  %64 = load ptr, ptr %16, align 8, !tbaa !287
  %65 = load ptr, ptr %17, align 8, !tbaa !11
  %66 = load i32, ptr %18, align 4, !tbaa !13
  %67 = sext i32 %66 to i64
  %68 = load ptr, ptr %19, align 8, !tbaa !26
  %69 = load float, ptr %20, align 4, !tbaa !9
  %70 = load i32, ptr %21, align 4, !tbaa !13
  %71 = load ptr, ptr %26, align 8, !tbaa !4
  %72 = call noundef float @_ZL13comm_cost_estffPA3_KfRK11gmx_ddbox_tlRK10t_inputrecfiRKN3gmx11BasicVectorIiEE(float noundef %62, float noundef %63, ptr noundef %64, ptr noundef nonnull align 4 dereferenceable(200) %65, i64 noundef %67, ptr noundef nonnull align 8 dereferenceable(880) %68, float noundef %69, i32 noundef %70, ptr noundef nonnull align 4 dereferenceable(12) %71)
  %73 = fcmp olt float %61, %72
  br i1 %73, label %74, label %77

74:                                               ; preds = %60, %55
  %75 = load ptr, ptr %27, align 8, !tbaa !4
  %76 = load ptr, ptr %26, align 8, !tbaa !4
  call void @llvm.memcpy.p0.p0.i64(ptr align 4 %76, ptr align 4 %75, i64 12, i1 false), !tbaa.struct !288
  br label %77

77:                                               ; preds = %74, %60, %41
  store i32 1, ptr %29, align 4
  call void @llvm.lifetime.end.p0(i64 4, ptr %28) #17
  br label %235

78:                                               ; preds = %13
  call void @llvm.lifetime.start.p0(i64 4, ptr %30) #17
  %79 = load ptr, ptr %24, align 8, !tbaa !263
  %80 = getelementptr inbounds i32, ptr %79, i64 0
  %81 = load i32, ptr %80, align 4, !tbaa !13
  store i32 %81, ptr %30, align 4, !tbaa !13
  br label %82

82:                                               ; preds = %231, %78
  %83 = load i32, ptr %30, align 4, !tbaa !13
  %84 = icmp sge i32 %83, 0
  br i1 %84, label %86, label %85

85:                                               ; preds = %82
  store i32 2, ptr %29, align 4
  call void @llvm.lifetime.end.p0(i64 4, ptr %30) #17
  br label %234

86:                                               ; preds = %82
  call void @llvm.lifetime.start.p0(i64 4, ptr %31) #17
  store i32 0, ptr %31, align 4, !tbaa !13
  br label %87

87:                                               ; preds = %100, %86
  %88 = load i32, ptr %31, align 4, !tbaa !13
  %89 = load i32, ptr %30, align 4, !tbaa !13
  %90 = icmp slt i32 %88, %89
  br i1 %90, label %92, label %91

91:                                               ; preds = %87
  store i32 5, ptr %29, align 4
  call void @llvm.lifetime.end.p0(i64 4, ptr %31) #17
  br label %103

92:                                               ; preds = %87
  %93 = load ptr, ptr %23, align 8, !tbaa !263
  %94 = getelementptr inbounds i32, ptr %93, i64 0
  %95 = load i32, ptr %94, align 4, !tbaa !13
  %96 = load ptr, ptr %27, align 8, !tbaa !4
  %97 = call noundef nonnull align 4 dereferenceable(4) ptr @_ZN3gmx11BasicVectorIiEixEi(ptr noundef nonnull align 4 dereferenceable(12) %96, i32 noundef 0)
  %98 = load i32, ptr %97, align 4, !tbaa !13
  %99 = mul nsw i32 %98, %95
  store i32 %99, ptr %97, align 4, !tbaa !13
  br label %100

100:                                              ; preds = %92
  %101 = load i32, ptr %31, align 4, !tbaa !13
  %102 = add nsw i32 %101, 1
  store i32 %102, ptr %31, align 4, !tbaa !13
  br label %87, !llvm.loop !379

103:                                              ; preds = %91
  call void @llvm.lifetime.start.p0(i64 4, ptr %32) #17
  %104 = load ptr, ptr %24, align 8, !tbaa !263
  %105 = getelementptr inbounds i32, ptr %104, i64 0
  %106 = load i32, ptr %105, align 4, !tbaa !13
  %107 = load i32, ptr %30, align 4, !tbaa !13
  %108 = sub nsw i32 %106, %107
  store i32 %108, ptr %32, align 4, !tbaa !13
  br label %109

109:                                              ; preds = %210, %103
  %110 = load i32, ptr %32, align 4, !tbaa !13
  %111 = icmp sge i32 %110, 0
  br i1 %111, label %113, label %112

112:                                              ; preds = %109
  store i32 8, ptr %29, align 4
  call void @llvm.lifetime.end.p0(i64 4, ptr %32) #17
  br label %213

113:                                              ; preds = %109
  call void @llvm.lifetime.start.p0(i64 4, ptr %33) #17
  store i32 0, ptr %33, align 4, !tbaa !13
  br label %114

114:                                              ; preds = %127, %113
  %115 = load i32, ptr %33, align 4, !tbaa !13
  %116 = load i32, ptr %32, align 4, !tbaa !13
  %117 = icmp slt i32 %115, %116
  br i1 %117, label %119, label %118

118:                                              ; preds = %114
  store i32 11, ptr %29, align 4
  call void @llvm.lifetime.end.p0(i64 4, ptr %33) #17
  br label %130

119:                                              ; preds = %114
  %120 = load ptr, ptr %23, align 8, !tbaa !263
  %121 = getelementptr inbounds i32, ptr %120, i64 0
  %122 = load i32, ptr %121, align 4, !tbaa !13
  %123 = load ptr, ptr %27, align 8, !tbaa !4
  %124 = call noundef nonnull align 4 dereferenceable(4) ptr @_ZN3gmx11BasicVectorIiEixEi(ptr noundef nonnull align 4 dereferenceable(12) %123, i32 noundef 1)
  %125 = load i32, ptr %124, align 4, !tbaa !13
  %126 = mul nsw i32 %125, %122
  store i32 %126, ptr %124, align 4, !tbaa !13
  br label %127

127:                                              ; preds = %119
  %128 = load i32, ptr %33, align 4, !tbaa !13
  %129 = add nsw i32 %128, 1
  store i32 %129, ptr %33, align 4, !tbaa !13
  br label %114, !llvm.loop !380

130:                                              ; preds = %118
  call void @llvm.lifetime.start.p0(i64 4, ptr %34) #17
  store i32 0, ptr %34, align 4, !tbaa !13
  br label %131

131:                                              ; preds = %150, %130
  %132 = load i32, ptr %34, align 4, !tbaa !13
  %133 = load ptr, ptr %24, align 8, !tbaa !263
  %134 = getelementptr inbounds i32, ptr %133, i64 0
  %135 = load i32, ptr %134, align 4, !tbaa !13
  %136 = load i32, ptr %30, align 4, !tbaa !13
  %137 = sub nsw i32 %135, %136
  %138 = load i32, ptr %32, align 4, !tbaa !13
  %139 = sub nsw i32 %137, %138
  %140 = icmp slt i32 %132, %139
  br i1 %140, label %142, label %141

141:                                              ; preds = %131
  store i32 14, ptr %29, align 4
  call void @llvm.lifetime.end.p0(i64 4, ptr %34) #17
  br label %153

142:                                              ; preds = %131
  %143 = load ptr, ptr %23, align 8, !tbaa !263
  %144 = getelementptr inbounds i32, ptr %143, i64 0
  %145 = load i32, ptr %144, align 4, !tbaa !13
  %146 = load ptr, ptr %27, align 8, !tbaa !4
  %147 = call noundef nonnull align 4 dereferenceable(4) ptr @_ZN3gmx11BasicVectorIiEixEi(ptr noundef nonnull align 4 dereferenceable(12) %146, i32 noundef 2)
  %148 = load i32, ptr %147, align 4, !tbaa !13
  %149 = mul nsw i32 %148, %145
  store i32 %149, ptr %147, align 4, !tbaa !13
  br label %150

150:                                              ; preds = %142
  %151 = load i32, ptr %34, align 4, !tbaa !13
  %152 = add nsw i32 %151, 1
  store i32 %152, ptr %34, align 4, !tbaa !13
  br label %131, !llvm.loop !381

153:                                              ; preds = %141
  %154 = load float, ptr %14, align 4, !tbaa !9
  %155 = load float, ptr %15, align 4, !tbaa !9
  %156 = load ptr, ptr %16, align 8, !tbaa !287
  %157 = load ptr, ptr %17, align 8, !tbaa !11
  %158 = load i32, ptr %18, align 4, !tbaa !13
  %159 = load ptr, ptr %19, align 8, !tbaa !26
  %160 = load float, ptr %20, align 4, !tbaa !9
  %161 = load i32, ptr %21, align 4, !tbaa !13
  %162 = load i32, ptr %22, align 4, !tbaa !13
  %163 = sub nsw i32 %162, 1
  %164 = load ptr, ptr %23, align 8, !tbaa !263
  %165 = getelementptr inbounds i32, ptr %164, i64 1
  %166 = load ptr, ptr %24, align 8, !tbaa !263
  %167 = getelementptr inbounds i32, ptr %166, i64 1
  %168 = load ptr, ptr %25, align 8, !tbaa !4
  %169 = load ptr, ptr %26, align 8, !tbaa !4
  call void @_ZL14assign_factorsffPA3_KfRK11gmx_ddbox_tiRK10t_inputrecfiiPKiS9_PN3gmx11BasicVectorIiEESD_(float noundef %154, float noundef %155, ptr noundef %156, ptr noundef nonnull align 4 dereferenceable(200) %157, i32 noundef %158, ptr noundef nonnull align 8 dereferenceable(880) %159, float noundef %160, i32 noundef %161, i32 noundef %163, ptr noundef %165, ptr noundef %167, ptr noundef %168, ptr noundef %169)
  call void @llvm.lifetime.start.p0(i64 4, ptr %35) #17
  store i32 0, ptr %35, align 4, !tbaa !13
  br label %170

170:                                              ; preds = %189, %153
  %171 = load i32, ptr %35, align 4, !tbaa !13
  %172 = load ptr, ptr %24, align 8, !tbaa !263
  %173 = getelementptr inbounds i32, ptr %172, i64 0
  %174 = load i32, ptr %173, align 4, !tbaa !13
  %175 = load i32, ptr %30, align 4, !tbaa !13
  %176 = sub nsw i32 %174, %175
  %177 = load i32, ptr %32, align 4, !tbaa !13
  %178 = sub nsw i32 %176, %177
  %179 = icmp slt i32 %171, %178
  br i1 %179, label %181, label %180

180:                                              ; preds = %170
  store i32 17, ptr %29, align 4
  call void @llvm.lifetime.end.p0(i64 4, ptr %35) #17
  br label %192

181:                                              ; preds = %170
  %182 = load ptr, ptr %23, align 8, !tbaa !263
  %183 = getelementptr inbounds i32, ptr %182, i64 0
  %184 = load i32, ptr %183, align 4, !tbaa !13
  %185 = load ptr, ptr %27, align 8, !tbaa !4
  %186 = call noundef nonnull align 4 dereferenceable(4) ptr @_ZN3gmx11BasicVectorIiEixEi(ptr noundef nonnull align 4 dereferenceable(12) %185, i32 noundef 2)
  %187 = load i32, ptr %186, align 4, !tbaa !13
  %188 = sdiv i32 %187, %184
  store i32 %188, ptr %186, align 4, !tbaa !13
  br label %189

189:                                              ; preds = %181
  %190 = load i32, ptr %35, align 4, !tbaa !13
  %191 = add nsw i32 %190, 1
  store i32 %191, ptr %35, align 4, !tbaa !13
  br label %170, !llvm.loop !382

192:                                              ; preds = %180
  call void @llvm.lifetime.start.p0(i64 4, ptr %36) #17
  store i32 0, ptr %36, align 4, !tbaa !13
  br label %193

193:                                              ; preds = %206, %192
  %194 = load i32, ptr %36, align 4, !tbaa !13
  %195 = load i32, ptr %32, align 4, !tbaa !13
  %196 = icmp slt i32 %194, %195
  br i1 %196, label %198, label %197

197:                                              ; preds = %193
  store i32 20, ptr %29, align 4
  call void @llvm.lifetime.end.p0(i64 4, ptr %36) #17
  br label %209

198:                                              ; preds = %193
  %199 = load ptr, ptr %23, align 8, !tbaa !263
  %200 = getelementptr inbounds i32, ptr %199, i64 0
  %201 = load i32, ptr %200, align 4, !tbaa !13
  %202 = load ptr, ptr %27, align 8, !tbaa !4
  %203 = call noundef nonnull align 4 dereferenceable(4) ptr @_ZN3gmx11BasicVectorIiEixEi(ptr noundef nonnull align 4 dereferenceable(12) %202, i32 noundef 1)
  %204 = load i32, ptr %203, align 4, !tbaa !13
  %205 = sdiv i32 %204, %201
  store i32 %205, ptr %203, align 4, !tbaa !13
  br label %206

206:                                              ; preds = %198
  %207 = load i32, ptr %36, align 4, !tbaa !13
  %208 = add nsw i32 %207, 1
  store i32 %208, ptr %36, align 4, !tbaa !13
  br label %193, !llvm.loop !383

209:                                              ; preds = %197
  br label %210

210:                                              ; preds = %209
  %211 = load i32, ptr %32, align 4, !tbaa !13
  %212 = add nsw i32 %211, -1
  store i32 %212, ptr %32, align 4, !tbaa !13
  br label %109, !llvm.loop !384

213:                                              ; preds = %112
  call void @llvm.lifetime.start.p0(i64 4, ptr %37) #17
  store i32 0, ptr %37, align 4, !tbaa !13
  br label %214

214:                                              ; preds = %227, %213
  %215 = load i32, ptr %37, align 4, !tbaa !13
  %216 = load i32, ptr %30, align 4, !tbaa !13
  %217 = icmp slt i32 %215, %216
  br i1 %217, label %219, label %218

218:                                              ; preds = %214
  store i32 23, ptr %29, align 4
  call void @llvm.lifetime.end.p0(i64 4, ptr %37) #17
  br label %230

219:                                              ; preds = %214
  %220 = load ptr, ptr %23, align 8, !tbaa !263
  %221 = getelementptr inbounds i32, ptr %220, i64 0
  %222 = load i32, ptr %221, align 4, !tbaa !13
  %223 = load ptr, ptr %27, align 8, !tbaa !4
  %224 = call noundef nonnull align 4 dereferenceable(4) ptr @_ZN3gmx11BasicVectorIiEixEi(ptr noundef nonnull align 4 dereferenceable(12) %223, i32 noundef 0)
  %225 = load i32, ptr %224, align 4, !tbaa !13
  %226 = sdiv i32 %225, %222
  store i32 %226, ptr %224, align 4, !tbaa !13
  br label %227

227:                                              ; preds = %219
  %228 = load i32, ptr %37, align 4, !tbaa !13
  %229 = add nsw i32 %228, 1
  store i32 %229, ptr %37, align 4, !tbaa !13
  br label %214, !llvm.loop !385

230:                                              ; preds = %218
  br label %231

231:                                              ; preds = %230
  %232 = load i32, ptr %30, align 4, !tbaa !13
  %233 = add nsw i32 %232, -1
  store i32 %233, ptr %30, align 4, !tbaa !13
  br label %82, !llvm.loop !386

234:                                              ; preds = %85
  store i32 0, ptr %29, align 4
  br label %235

235:                                              ; preds = %234, %77
  call void @llvm.lifetime.end.p0(i64 8, ptr %27) #17
  %236 = load i32, ptr %29, align 4
  switch i32 %236, label %238 [
    i32 0, label %237
    i32 1, label %237
  ]

237:                                              ; preds = %235, %235
  ret void

238:                                              ; preds = %235
  unreachable
}