; Function Attrs: mustprogress uwtable
define internal fastcc void @_ZL14assign_factorsffPA3_KfRK11gmx_ddbox_tiRK10t_inputrecfiiPKiS9_PN3gmx11BasicVectorIiEESD_(float noundef %0, float noundef %1, ptr noundef readonly captures(none) %2, ptr noundef nonnull readonly align 4 captures(none) dereferenceable(200) %3, i32 noundef %4, ptr noundef nonnull readonly align 8 captures(none) dereferenceable(880) %5, float noundef %6, i32 noundef %7, i32 noundef %8, ptr noundef readonly captures(none) %9, ptr noundef readonly captures(none) %10, ptr noundef nonnull captures(none) %11, ptr noundef nonnull captures(none) %12) unnamed_addr #2 {
  %14 = icmp eq i32 %8, 0
  br i1 %14, label %15, label %26

15:                                               ; preds = %13
  %16 = sext i32 %4 to i64
  %17 = tail call fastcc noundef float @_ZL13comm_cost_estffPA3_KfRK11gmx_ddbox_tlRK10t_inputrecfiRKN3gmx11BasicVectorIiEE(float noundef %0, float noundef %1, ptr noundef %2, ptr noundef nonnull align 4 dereferenceable(200) %3, i64 noundef %16, ptr noundef nonnull align 8 dereferenceable(880) %5, float noundef %6, i32 noundef %7, ptr noundef nonnull align 4 dereferenceable(12) %11)
  %18 = fcmp ult float %17, 0.000000e+00
  br i1 %18, label %.loopexit, label %19

19:                                               ; preds = %15
  %20 = load i32, ptr %12, align 4, !tbaa !8
  %21 = icmp eq i32 %20, 0
  br i1 %21, label %25, label %22

22:                                               ; preds = %19
  %23 = tail call fastcc noundef float @_ZL13comm_cost_estffPA3_KfRK11gmx_ddbox_tlRK10t_inputrecfiRKN3gmx11BasicVectorIiEE(float noundef %0, float noundef %1, ptr noundef %2, ptr noundef nonnull align 4 dereferenceable(200) %3, i64 noundef %16, ptr noundef nonnull align 8 dereferenceable(880) %5, float noundef %6, i32 noundef %7, ptr noundef nonnull align 4 dereferenceable(12) %12)
  %24 = fcmp olt float %17, %23
  br i1 %24, label %25, label %.loopexit

25:                                               ; preds = %22, %19
  tail call void @llvm.memcpy.p0.p0.i64(ptr noundef nonnull align 4 dereferenceable(12) %12, ptr noundef nonnull align 4 dereferenceable(12) %11, i64 12, i1 false), !tbaa.struct !239
  br label %.loopexit

26:                                               ; preds = %13
  %27 = load i32, ptr %10, align 4, !tbaa !8
  %28 = icmp sgt i32 %27, -1
  br i1 %28, label %.preheader90.lr.ph, label %.loopexit

.preheader90.lr.ph:                               ; preds = %26
  %29 = getelementptr inbounds nuw i8, ptr %11, i64 4
  %30 = getelementptr inbounds nuw i8, ptr %11, i64 8
  %31 = add nsw i32 %8, -1
  %32 = getelementptr inbounds nuw i8, ptr %9, i64 4
  %33 = getelementptr inbounds nuw i8, ptr %10, i64 4
  br label %.preheader90

.preheader90:                                     ; preds = %._crit_edge106, %.preheader90.lr.ph
  %.084107 = phi i32 [ %27, %.preheader90.lr.ph ], [ %73, %._crit_edge106 ]
  %.not115 = icmp eq i32 %.084107, 0
  br i1 %.not115, label %._crit_edge, label %.lr.ph.preheader

.lr.ph.preheader:                                 ; preds = %.preheader90
  %.pre = load i32, ptr %11, align 4, !tbaa !8
  br label %.lr.ph

._crit_edge:                                      ; preds = %.lr.ph, %.preheader90
  %34 = load i32, ptr %10, align 4, !tbaa !8
  %35 = sub nsw i32 %34, %.084107
  %36 = icmp sgt i32 %35, -1
  br i1 %36, label %.preheader88, label %.preheader89

.lr.ph:                                           ; preds = %.lr.ph.preheader, %.lr.ph
  %37 = phi i32 [ %39, %.lr.ph ], [ %.pre, %.lr.ph.preheader ]
  %.08391 = phi i32 [ %40, %.lr.ph ], [ 0, %.lr.ph.preheader ]
  %38 = load i32, ptr %9, align 4, !tbaa !8
  %39 = mul nsw i32 %37, %38
  store i32 %39, ptr %11, align 4, !tbaa !8
  %40 = add nuw nsw i32 %.08391, 1
  %exitcond.not = icmp eq i32 %40, %.084107
  br i1 %exitcond.not, label %._crit_edge, label %.lr.ph, !llvm.loop !240

.preheader89:                                     ; preds = %.preheader, %._crit_edge
  br i1 %.not115, label %.loopexit, label %.lr.ph105.preheader

.lr.ph105.preheader:                              ; preds = %.preheader89
  %.pre114 = load i32, ptr %11, align 4, !tbaa !8
  br label %.lr.ph105

.preheader88:                                     ; preds = %._crit_edge, %._crit_edge102
  %.082103 = phi i32 [ %67, %._crit_edge102 ], [ %35, %._crit_edge ]
  %.not = icmp eq i32 %.082103, 0
  br i1 %.not, label %.preheader87, label %.lr.ph93.preheader

.lr.ph93.preheader:                               ; preds = %.preheader88
  %.pre110 = load i32, ptr %29, align 4, !tbaa !8
  br label %.lr.ph93

.preheader87:                                     ; preds = %.lr.ph93, %.preheader88
  %41 = add nuw i32 %.082103, %.084107
  %42 = load i32, ptr %10, align 4, !tbaa !8
  %43 = sub i32 %42, %41
  %44 = icmp sgt i32 %43, 0
  br i1 %44, label %.lr.ph95.preheader, label %._crit_edge96

.lr.ph95.preheader:                               ; preds = %.preheader87
  %.pre111 = load i32, ptr %30, align 4, !tbaa !8
  br label %.lr.ph95

.lr.ph93:                                         ; preds = %.lr.ph93.preheader, %.lr.ph93
  %45 = phi i32 [ %47, %.lr.ph93 ], [ %.pre110, %.lr.ph93.preheader ]
  %.08192 = phi i32 [ %48, %.lr.ph93 ], [ 0, %.lr.ph93.preheader ]
  %46 = load i32, ptr %9, align 4, !tbaa !8
  %47 = mul nsw i32 %45, %46
  store i32 %47, ptr %29, align 4, !tbaa !8
  %48 = add nuw nsw i32 %.08192, 1
  %49 = icmp samesign ult i32 %48, %.082103
  br i1 %49, label %.lr.ph93, label %.preheader87, !llvm.loop !241

._crit_edge96:                                    ; preds = %.lr.ph95, %.preheader87
  tail call fastcc void @_ZL14assign_factorsffPA3_KfRK11gmx_ddbox_tiRK10t_inputrecfiiPKiS9_PN3gmx11BasicVectorIiEESD_(float noundef %0, float noundef %1, ptr noundef %2, ptr noundef nonnull align 4 dereferenceable(200) %3, i32 noundef %4, ptr noundef nonnull align 8 dereferenceable(880) %5, float noundef %6, i32 noundef %7, i32 noundef %31, ptr noundef nonnull %32, ptr noundef nonnull %33, ptr noundef %11, ptr noundef %12)
  %50 = load i32, ptr %10, align 4, !tbaa !8
  %51 = sub i32 %50, %41
  %52 = icmp sgt i32 %51, 0
  br i1 %52, label %.lr.ph99.preheader, label %.preheader

.lr.ph99.preheader:                               ; preds = %._crit_edge96
  %.pre112 = load i32, ptr %30, align 4, !tbaa !8
  br label %.lr.ph99

.lr.ph95:                                         ; preds = %.lr.ph95.preheader, %.lr.ph95
  %53 = phi i32 [ %55, %.lr.ph95 ], [ %.pre111, %.lr.ph95.preheader ]
  %.08094 = phi i32 [ %56, %.lr.ph95 ], [ 0, %.lr.ph95.preheader ]
  %54 = load i32, ptr %9, align 4, !tbaa !8
  %55 = mul nsw i32 %53, %54
  store i32 %55, ptr %30, align 4, !tbaa !8
  %56 = add nuw nsw i32 %.08094, 1
  %57 = load i32, ptr %10, align 4, !tbaa !8
  %58 = sub i32 %57, %41
  %59 = icmp slt i32 %56, %58
  br i1 %59, label %.lr.ph95, label %._crit_edge96, !llvm.loop !242

.preheader:                                       ; preds = %.lr.ph99, %._crit_edge96
  br i1 %.not, label %.preheader89, label %.lr.ph101.preheader

.lr.ph101.preheader:                              ; preds = %.preheader
  %.pre113 = load i32, ptr %29, align 4, !tbaa !8
  br label %.lr.ph101

.lr.ph99:                                         ; preds = %.lr.ph99.preheader, %.lr.ph99
  %60 = phi i32 [ %62, %.lr.ph99 ], [ %.pre112, %.lr.ph99.preheader ]
  %.07997 = phi i32 [ %63, %.lr.ph99 ], [ 0, %.lr.ph99.preheader ]
  %61 = load i32, ptr %9, align 4, !tbaa !8
  %62 = sdiv i32 %60, %61
  store i32 %62, ptr %30, align 4, !tbaa !8
  %63 = add nuw nsw i32 %.07997, 1
  %64 = load i32, ptr %10, align 4, !tbaa !8
  %65 = sub i32 %64, %41
  %66 = icmp slt i32 %63, %65
  br i1 %66, label %.lr.ph99, label %.preheader, !llvm.loop !243

._crit_edge102:                                   ; preds = %.lr.ph101
  %67 = add nsw i32 %.082103, -1
  br label %.preheader88, !llvm.loop !244

.lr.ph101:                                        ; preds = %.lr.ph101.preheader, %.lr.ph101
  %68 = phi i32 [ %70, %.lr.ph101 ], [ %.pre113, %.lr.ph101.preheader ]
  %.078100 = phi i32 [ %71, %.lr.ph101 ], [ 0, %.lr.ph101.preheader ]
  %69 = load i32, ptr %9, align 4, !tbaa !8
  %70 = sdiv i32 %68, %69
  store i32 %70, ptr %29, align 4, !tbaa !8
  %71 = add nuw nsw i32 %.078100, 1
  %72 = icmp samesign ult i32 %71, %.082103
  br i1 %72, label %.lr.ph101, label %._crit_edge102, !llvm.loop !245

._crit_edge106:                                   ; preds = %.lr.ph105
  %73 = add nsw i32 %.084107, -1
  br label %.preheader90, !llvm.loop !246

.lr.ph105:                                        ; preds = %.lr.ph105.preheader, %.lr.ph105
  %74 = phi i32 [ %76, %.lr.ph105 ], [ %.pre114, %.lr.ph105.preheader ]
  %.0104 = phi i32 [ %77, %.lr.ph105 ], [ 0, %.lr.ph105.preheader ]
  %75 = load i32, ptr %9, align 4, !tbaa !8
  %76 = sdiv i32 %74, %75
  store i32 %76, ptr %11, align 4, !tbaa !8
  %77 = add nuw nsw i32 %.0104, 1
  %exitcond109.not = icmp eq i32 %77, %.084107
  br i1 %exitcond109.not, label %._crit_edge106, label %.lr.ph105, !llvm.loop !247

.loopexit:                                        ; preds = %.preheader89, %26, %15, %22, %25
  ret void
}